Certificate:
    Data:
        Version: 3 (0x2)
        Serial Number:
            b1:8b:2d:14:37:40:44:20
        Signature Algorithm: sha1WithRSAEncryption
        Issuer: C=CN, ST=guangdong, L=shenzhen, O=tplink, OU=SOHO, CN=SDMP/emailAddress=SDMP@tp-link.net
        Validity
            Not Before: May  8 08:50:17 2014 GMT
            Not After : Feb  1 08:50:17 2017 GMT
        Subject: C=CN, ST=guangdong, L=shenzhen, O=tplink, OU=SOHO, CN=SDMP/emailAddress=SDMP@tp-link.net
        Subject Public Key Info:
            Public Key Algorithm: rsaEncryption
            RSA Public Key: (512 bit)
                Modulus (512 bit):
                    00:b3:e8:3c:0d:d5:d9:d9:0e:26:56:6e:1f:68:24:
                    4c:0e:e1:a0:20:33:eb:fb:bc:96:9e:f3:e7:5a:84:
                    cc:52:d1:64:0f:42:b3:2b:33:18:47:ca:84:6b:93:
                    22:8f:da:9a:94:90:3e:20:85:42:0a:13:17:c8:7d:
                    bd:89:b2:20:7b
                Exponent: 65537 (0x10001)
        X509v3 extensions:
            X509v3 Subject Key Identifier: 
                EC:1C:A3:BA:9F:C5:E5:4B:C1:E6:55:53:D5:08:C8:66:FE:58:91:6E
            X509v3 Authority Key Identifier: 
                keyid:EC:1C:A3:BA:9F:C5:E5:4B:C1:E6:55:53:D5:08:C8:66:FE:58:91:6E
                DirName:/C=CN/ST=guangdong/L=shenzhen/O=tplink/OU=SOHO/CN=SDMP/emailAddress=SDMP@tp-link.net
                serial:B1:8B:2D:14:37:40:44:20

            X509v3 Basic Constraints: 
                CA:TRUE
    Signature Algorithm: sha1WithRSAEncryption
        89:2b:b3:df:a9:bc:55:70:b4:ae:e2:a0:6e:c8:9c:fa:de:ee:
        52:dd:4a:8e:4a:da:06:a7:a5:07:c5:8c:b1:d4:0f:71:0f:55:
        f7:dd:65:d6:82:85:37:19:a8:cd:4a:d9:87:9f:1b:f4:3c:40:
        d3:e6:d5:ca:fc:36:6a:74:9b:bd

-----BEGIN CERTIFICATE-----
MIIC8DCCApqgAwIBAgIJALGLLRQ3QEQgMA0GCSqGSIb3DQEBBQUAMIGEMQswCQYD
VQQGEwJDTjESMBAGA1UECBMJZ3Vhbmdkb25nMREwDwYDVQQHEwhzaGVuemhlbjEP
MA0GA1UEChMGdHBsaW5rMQ0wCwYDVQQLEwRTT0hPMQ0wCwYDVQQDEwRTRE1QMR8w
HQYJKoZIhvcNAQkBFhBTRE1QQHRwLWxpbmsubmV0MB4XDTE0MDUwODA4NTAxN1oX
DTE3MDIwMTA4NTAxN1owgYQxCzAJBgNVBAYTAkNOMRIwEAYDVQQIEwlndWFuZ2Rv
bmcxETAPBgNVBAcTCHNoZW56aGVuMQ8wDQYDVQQKEwZ0cGxpbmsxDTALBgNVBAsT
BFNPSE8xDTALBgNVBAMTBFNETVAxHzAdBgkqhkiG9w0BCQEWEFNETVBAdHAtbGlu
ay5uZXQwXDANBgkqhkiG9w0BAQEFAANLADBIAkEAs+g8DdXZ2Q4mVm4faCRMDuGg
IDPr+7yWnvPnWoTMUtFkD0KzKzMYR8qEa5Mij9qalJA+IIVCChMXyH29ibIgewID
AQABo4HsMIHpMB0GA1UdDgQWBBTsHKO6n8XlS8HmVVPVCMhm/liRbjCBuQYDVR0j
BIGxMIGugBTsHKO6n8XlS8HmVVPVCMhm/liRbqGBiqSBhzCBhDELMAkGA1UEBhMC
Q04xEjAQBgNVBAgTCWd1YW5nZG9uZzERMA8GA1UEBxMIc2hlbnpoZW4xDzANBgNV
BAoTBnRwbGluazENMAsGA1UECxMEU09ITzENMAsGA1UEAxMEU0RNUDEfMB0GCSqG
SIb3DQEJARYQU0RNUEB0cC1saW5rLm5ldIIJALGLLRQ3QEQgMAwGA1UdEwQFMAMB
Af8wDQYJKoZIhvcNAQEFBQADQQCJK7PfqbxVcLSu4qBuyJz63u5S3UqOStoGp6UH
xYyx1A9xD1X33WXWgoU3GajNStmHnxv0PEDT5tXK/DZqdJu9
-----END CERTIFICATE-----

-----BEGIN CERTIFICATE-----
MIIDBzCCAe+gAwIBAgIQT5x0ma7QnINHCQvhnmzR9zANBgkqhkiG9w0BAQsFADAV
MRMwEQYDVQQDEwp0cC1saW5rLUNBMCAXDTE4MDExOTA4Mjc1MloYDzIwNjgwMTE5
MDgzNzUyWjAVMRMwEQYDVQQDEwp0cC1saW5rLUNBMIIBIjANBgkqhkiG9w0BAQEF
AAOCAQ8AMIIBCgKCAQEAuGG8n5zEUN1j5wuvUz4pAIMurhKHbpfUUu+b2acFHKS6
iU9hNJWvDyhXcihY5Wz6aq9m4D5SZcgW3k31YoNNtrztDjdg2qw7AaX85S99/G0B
VbIXktrhs34OW19WA/haDwut3dFhLem+gCRRKUXcmuqchZc84dY7JFVfhPcJci4m
sRjLCFNO0ho9OX+MZwfO4BLaeAqKVoAor6rf4BXVtO0xjYHDKO0fb3AWLLJ4EjGe
q6YieqPiYlPFEqRm5PrvBXTm0IuQogygyVpK4LHr/K207ZLyV33DxLLbsUgSEJVn
pZUv/WUujXjlIDgxIvyZZCYiXO3dle2/MEvpmZk6JQIDAQABo1EwTzALBgNVHQ8E
BAMCAYYwDwYDVR0TAQH/BAUwAwEB/zAdBgNVHQ4EFgQUxu2iBRTsef5iNnsADVhM
JDQWi6kwEAYJKwYBBAGCNxUBBAMCAQAwDQYJKoZIhvcNAQELBQADggEBAB52Majd
+wo3cb5BsTo63z2Psbbyl4ACMUaw68NxUMy61Oihx3mcLzLJqiIZcKePiHskLqLJ
F7QfT9TqjvizMjFJVgsLuVubUBXKBzqyN+3KKlQci0PO3mH+ObhyaE7BzV+qrS3P
dVTgsCWFv8DkgLTRudSWxL7VwVoedc7lRz5EroGgJ33nRGCR0ngcW919tLTARDQO
pULmzulcdWeZgG+0PLX0xjJQIjFEvbOxR1Z+gxMupBz0rWFokmWYrcga8eWiWzjQ
Ia3/ASBVJ69srV77trWlfLumkChbXk9i64NXBKnce0Jmll0Y9OC1nMPqrbQKnzcn
dSAA4fejD/qMQn0=
-----END CERTIFICATE-----